; Function Attrs: cold nounwind optsize uwtable
define internal i32 @webp_decode_close(ptr noundef %0) #0 {
  %2 = getelementptr inbounds nuw i8, ptr %0, i64 32
  %3 = load ptr, ptr %2, align 8, !tbaa !4
  %4 = getelementptr inbounds nuw i8, ptr %3, i64 6600
  tail call void @av_packet_free(ptr noundef nonnull %4) #11
  %5 = getelementptr inbounds nuw i8, ptr %3, i64 6616
  %6 = load i32, ptr %5, align 8, !tbaa !75
  %.not = icmp eq i32 %6, 0
  br i1 %.not, label %9, label %7

7:                                                ; preds = %1
  %8 = tail call i32 @ff_vp8_decode_free(ptr noundef nonnull %0) #11
  br label %9

9:                                                ; preds = %1, %7
  %.0 = phi i32 [ %8, %7 ], [ 0, %1 ]
  ret i32 %.0
}